; Function Attrs: nounwind uwtable
define internal void @recff_bit_tohex(ptr noundef %0, ptr noundef %1) #0 {
  %3 = getelementptr inbounds i8, ptr %0, i64 -536
  %4 = tail call i32 @lj_ir_kptr_(ptr noundef %0, i32 noundef 25, ptr noundef nonnull %3) #9
  %5 = trunc i32 %4 to i16
  %6 = getelementptr inbounds nuw i8, ptr %0, i64 184
  %7 = getelementptr inbounds nuw i8, ptr %0, i64 188
  store i16 21769, ptr %7, align 4, !tbaa !4
  store i16 %5, ptr %6, align 8, !tbaa !4
  %8 = getelementptr inbounds nuw i8, ptr %0, i64 186
  store i16 0, ptr %8, align 2, !tbaa !4
  %9 = tail call i32 @lj_opt_fold(ptr noundef %0) #9
  %10 = tail call i32 @recff_bit64_tohex(ptr noundef %0, ptr noundef %1, i32 noundef %9) #9
  %11 = trunc i32 %10 to i16
  %12 = trunc i32 %9 to i16
  store i16 22404, ptr %7, align 4, !tbaa !4
  store i16 %11, ptr %6, align 8, !tbaa !4
  store i16 %12, ptr %8, align 2, !tbaa !4
  %13 = tail call i32 @lj_opt_fold(ptr noundef %0) #9
  %14 = getelementptr inbounds nuw i8, ptr %0, i64 160
  %15 = load ptr, ptr %14, align 8, !tbaa !37
  store i32 %13, ptr %15, align 4, !tbaa !39
  ret void
}